Certificate:
    Data:
        Version: 1 (0x0)
        Serial Number: 4660 (0x1234)
        Signature Algorithm: sha256WithRSAEncryption
        Issuer: C=in, ST=wb, L=ccu, O=b, OU=c, CN=arnab@gov/emailAddress=a@bc.gov
        Validity
            Not Before: Feb 17 19:58:56 2025 GMT
            Not After : Feb 17 19:58:56 2026 GMT
        Subject: C=in, ST=wb, L=ccu, O=b, OU=c, CN=test.arnab.in/emailAddress=a@bc.in
        Subject Public Key Info:
            Public Key Algorithm: rsaEncryption
                RSA Public-Key: (2048 bit)
                Modulus:
                    00:d6:3a:34:78:5b:19:2c:d8:67:ab:66:3b:be:73:
                    f7:59:af:48:76:a8:f4:0d:b7:84:18:34:8a:07:43:
                    42:24:39:f4:e0:51:73:69:6c:9b:1d:55:c8:90:9f:
                    70:41:33:d1:98:fd:66:eb:ad:bd:aa:3f:93:8c:e5:
                    44:7d:4c:25:f8:54:dc:44:24:ec:68:30:c8:fe:7b:
                    c7:2c:d2:3d:d5:ee:da:52:c6:b3:ac:d7:f1:ed:e5:
                    e7:fc:86:e4:2f:85:93:a1:c5:ae:d3:b1:44:7e:15:
                    31:a2:12:11:e1:b4:5b:fa:e3:3f:31:72:52:3e:af:
                    6c:ac:fd:18:d4:44:4b:51:94:28:65:1e:ed:0b:42:
                    e4:90:21:c0:92:62:e5:60:42:11:e9:2c:b1:a0:19:
                    2f:f7:4d:fa:17:69:26:09:ff:28:76:8c:cb:ca:96:
                    be:f3:96:cb:dc:18:8b:b2:1c:b1:26:75:f0:30:1d:
                    26:ab:e5:9a:e2:75:99:1b:fe:06:32:25:8a:ff:ec:
                    b7:42:95:73:5f:48:e0:85:70:c8:e1:d3:6a:6f:bd:
                    70:8a:77:e0:72:62:55:f1:75:a9:8f:4a:49:d3:09:
                    88:db:2d:53:b6:90:f1:71:57:39:6f:06:26:ce:b0:
                    66:f9:95:84:20:9c:45:2b:8c:a5:49:9e:00:b5:5a:
                    39:73
                Exponent: 65537 (0x10001)
    Signature Algorithm: sha256WithRSAEncryption
         3d:20:cc:9f:55:48:13:46:73:49:b1:89:68:cd:4e:0c:d1:bd:
         4b:19:41:e6:cc:b5:d9:dd:0b:fa:6d:56:50:fc:23:fb:e3:72:
         48:06:01:27:38:d1:ca:ba:b1:0a:2d:d4:8d:5f:56:75:25:89:
         42:96:37:ef:8d:81:2a:d0:5a:f6:ec:68:92:6c:c1:2d:af:d8:
         83:d7:8f:9d:f2:83:81:f7:10:4d:ff:a5:0a:c4:49:18:79:22:
         2a:e4:c2:ec:72:b3:f0:44:38:57:8f:b5:c8:e4:9a:47:4a:ca:
         55:f7:48:ce:ee:dd:90:e6:f5:17:2d:5f:ce:de:cb:4f:6c:e0:
         41:31:91:1d:42:ae:28:fc:fc:4a:3d:22:7b:33:30:96:91:14:
         14:7c:41:20:88:b2:48:9e:4a:3f:08:95:da:cd:55:8e:d4:9a:
         1b:b6:1c:cc:8a:ba:c6:93:5c:bf:a0:f0:31:71:a3:75:2c:82:
         80:5a:da:eb:4b:0f:44:41:31:e6:86:6c:ac:a4:2d:74:ea:96:
         2a:db:4c:0b:ec:be:a3:c8:f3:3f:7e:f2:8e:92:38:b7:ca:b2:
         d9:c6:2c:49:19:86:0b:8d:53:9e:92:63:cc:ae:8b:38:5d:a1:
         46:d9:0c:2d:30:c5:5f:22:98:d0:12:bb:67:fe:85:07:5b:3e:
         8e:2c:89:23
-----BEGIN CERTIFICATE-----
MIIDUjCCAjoCAhI0MA0GCSqGSIb3DQEBCwUAMG0xCzAJBgNVBAYTAmluMQswCQYD
VQQIDAJ3YjEMMAoGA1UEBwwDY2N1MQowCAYDVQQKDAFiMQowCAYDVQQLDAFjMRIw
EAYDVQQDDAlhcm5hYkBnb3YxFzAVBgkqhkiG9w0BCQEWCGFAYmMuZ292MB4XDTI1
MDIxNzE5NTg1NloXDTI2MDIxNzE5NTg1NlowcDELMAkGA1UEBhMCaW4xCzAJBgNV
BAgMAndiMQwwCgYDVQQHDANjY3UxCjAIBgNVBAoMAWIxCjAIBgNVBAsMAWMxFjAU
BgNVBAMMDXRlc3QuYXJuYWIuaW4xFjAUBgkqhkiG9w0BCQEWB2FAYmMuaW4wggEi
MA0GCSqGSIb3DQEBAQUAA4IBDwAwggEKAoIBAQDWOjR4Wxks2GerZju+c/dZr0h2
qPQNt4QYNIoHQ0IkOfTgUXNpbJsdVciQn3BBM9GY/Wbrrb2qP5OM5UR9TCX4VNxE
JOxoMMj+e8cs0j3V7tpSxrOs1/Ht5ef8huQvhZOhxa7TsUR+FTGiEhHhtFv64z8x
clI+r2ys/RjUREtRlChlHu0LQuSQIcCSYuVgQhHpLLGgGS/3TfoXaSYJ/yh2jMvK
lr7zlsvcGIuyHLEmdfAwHSar5ZridZkb/gYyJYr/7LdClXNfSOCFcMjh02pvvXCK
d+ByYlXxdamPSknTCYjbLVO2kPFxVzlvBibOsGb5lYQgnEUrjKVJngC1WjlzAgMB
AAEwDQYJKoZIhvcNAQELBQADggEBAD0gzJ9VSBNGc0mxiWjNTgzRvUsZQebMtdnd
C/ptVlD8I/vjckgGASc40cq6sQot1I1fVnUliUKWN++NgSrQWvbsaJJswS2v2IPX
j53yg4H3EE3/pQrESRh5Iirkwuxys/BEOFePtcjkmkdKylX3SM7u3ZDm9RctX87e
y09s4EExkR1Crij8/Eo9InszMJaRFBR8QSCIskieSj8IldrNVY7Umhu2HMyKusaT
XL+g8DFxo3UsgoBa2utLD0RBMeaGbKykLXTqlirbTAvsvqPI8z9+8o6SOLfKstnG
LEkZhguNU56SY8yuizhdoUbZDC0wxV8imNASu2f+hQdbPo4siSM=
-----END CERTIFICATE-----
